target datalayout = "e-m:e-p270:32:32-p271:32:32-p272:64:64-i64:64-i128:128-f80:128-n8:16:32:64-S128"
target triple = "x86_64-pc-linux-gnu"

%struct.list_head = type { ptr, ptr }
%struct.JSSABHeader = type { i32, [0 x i64] }
%struct.JSWorkerMessagePipe = type { i32, %union.pthread_mutex_t, %struct.list_head, i32, i32 }
%union.pthread_mutex_t = type { %struct.__pthread_mutex_s }
%struct.__pthread_mutex_s = type { i32, i32, i32, i32, i32, i16, i16, %struct.__pthread_internal_list }
%struct.__pthread_internal_list = type { ptr, ptr }
%struct.JSWorkerMessage = type { %struct.list_head, ptr, i64, ptr, i64 }

; Function Attrs: nounwind uwtable
define internal void @js_sab_free(ptr noundef %0, ptr noundef %1) #0 {
  %3 = alloca ptr, align 8
  %4 = alloca ptr, align 8
  %5 = alloca ptr, align 8
  %6 = alloca i32, align 4
  store ptr %0, ptr %3, align 8
  store ptr %1, ptr %4, align 8
  %7 = load ptr, ptr %4, align 8
  %8 = getelementptr i8, ptr %7, i64 -8
  store ptr %8, ptr %5, align 8
  %9 = load ptr, ptr %5, align 8
  %10 = getelementptr inbounds %struct.JSSABHeader, ptr %9, i32 0, i32 0
  %11 = call i32 @atomic_add_int(ptr noundef %10, i32 noundef -1)
  store i32 %11, ptr %6, align 4
  %12 = load i32, ptr %6, align 4
  %13 = icmp eq i32 %12, 0
  br i1 %13, label %14, label %16

14:                                               ; preds = %2
  %15 = load ptr, ptr %5, align 8
  call void @free(ptr noundef %15) #12
  br label %16

16:                                               ; preds = %14, %2
  ret void
}

; Function Attrs: nounwind uwtable
define internal void @js_free_message(ptr noundef %0) #0 {
  %2 = alloca ptr, align 8
  %3 = alloca i64, align 8
  store ptr %0, ptr %2, align 8
  store i64 0, ptr %3, align 8
  br label %4

4:                                                ; preds = %17, %1
  %5 = load i64, ptr %3, align 8
  %6 = load ptr, ptr %2, align 8
  %7 = getelementptr inbounds %struct.JSWorkerMessage, ptr %6, i32 0, i32 4
  %8 = load i64, ptr %7, align 8
  %9 = icmp ult i64 %5, %8
  br i1 %9, label %10, label %20

10:                                               ; preds = %4
  %11 = load ptr, ptr %2, align 8
  %12 = getelementptr inbounds %struct.JSWorkerMessage, ptr %11, i32 0, i32 3
  %13 = load ptr, ptr %12, align 8
  %14 = load i64, ptr %3, align 8
  %15 = getelementptr ptr, ptr %13, i64 %14
  %16 = load ptr, ptr %15, align 8
  call void @js_sab_free(ptr noundef null, ptr noundef %16)
  br label %17

17:                                               ; preds = %10
  %18 = load i64, ptr %3, align 8
  %19 = add i64 %18, 1
  store i64 %19, ptr %3, align 8
  br label %4, !llvm.loop !33

20:                                               ; preds = %4
  %21 = load ptr, ptr %2, align 8
  %22 = getelementptr inbounds %struct.JSWorkerMessage, ptr %21, i32 0, i32 3
  %23 = load ptr, ptr %22, align 8
  call void @free(ptr noundef %23) #12
  %24 = load ptr, ptr %2, align 8
  %25 = getelementptr inbounds %struct.JSWorkerMessage, ptr %24, i32 0, i32 1
  %26 = load ptr, ptr %25, align 8
  call void @free(ptr noundef %26) #12
  %27 = load ptr, ptr %2, align 8
  call void @free(ptr noundef %27) #12
  ret void
}

; Function Attrs: nounwind uwtable
define internal i32 @atomic_add_int(ptr noundef %0, i32 noundef %1) #0 {
  %3 = alloca ptr, align 8
  %4 = alloca i32, align 4
  %5 = alloca i32, align 4
  %6 = alloca i32, align 4
  store ptr %0, ptr %3, align 8
  store i32 %1, ptr %4, align 4
  %7 = load ptr, ptr %3, align 8
  %8 = load i32, ptr %4, align 4
  store i32 %8, ptr %5, align 4
  %9 = load i32, ptr %5, align 4
  %10 = atomicrmw add ptr %7, i32 %9 seq_cst, align 4
  store i32 %10, ptr %6, align 4
  %11 = load i32, ptr %6, align 4
  %12 = load i32, ptr %4, align 4
  %13 = add i32 %11, %12
  ret i32 %13
}

; Function Attrs: nounwind uwtable
define internal void @js_free_message_pipe(ptr noundef %0) #0 {
  %2 = alloca ptr, align 8
  %3 = alloca ptr, align 8
  %4 = alloca ptr, align 8
  %5 = alloca ptr, align 8
  %6 = alloca i32, align 4
  store ptr %0, ptr %2, align 8
  %7 = load ptr, ptr %2, align 8
  %8 = icmp ne ptr %7, null
  br i1 %8, label %10, label %9

9:                                                ; preds = %1
  br label %51

10:                                               ; preds = %1
  %11 = load ptr, ptr %2, align 8
  %12 = getelementptr inbounds %struct.JSWorkerMessagePipe, ptr %11, i32 0, i32 0
  %13 = call i32 @atomic_add_int(ptr noundef %12, i32 noundef -1)
  store i32 %13, ptr %6, align 4
  %14 = load i32, ptr %6, align 4
  %15 = icmp eq i32 %14, 0
  br i1 %15, label %16, label %51

16:                                               ; preds = %10
  %17 = load ptr, ptr %2, align 8
  %18 = getelementptr inbounds %struct.JSWorkerMessagePipe, ptr %17, i32 0, i32 2
  %19 = getelementptr inbounds %struct.list_head, ptr %18, i32 0, i32 1
  %20 = load ptr, ptr %19, align 8
  store ptr %20, ptr %3, align 8
  %21 = load ptr, ptr %3, align 8
  %22 = getelementptr inbounds %struct.list_head, ptr %21, i32 0, i32 1
  %23 = load ptr, ptr %22, align 8
  store ptr %23, ptr %4, align 8
  br label %24

24:                                               ; preds = %33, %16
  %25 = load ptr, ptr %3, align 8
  %26 = load ptr, ptr %2, align 8
  %27 = getelementptr inbounds %struct.JSWorkerMessagePipe, ptr %26, i32 0, i32 2
  %28 = icmp ne ptr %25, %27
  br i1 %28, label %29, label %38

29:                                               ; preds = %24
  %30 = load ptr, ptr %3, align 8
  %31 = getelementptr i8, ptr %30, i64 0
  store ptr %31, ptr %5, align 8
  %32 = load ptr, ptr %5, align 8
  call void @js_free_message(ptr noundef %32)
  br label %33

33:                                               ; preds = %29
  %34 = load ptr, ptr %4, align 8
  store ptr %34, ptr %3, align 8
  %35 = load ptr, ptr %3, align 8
  %36 = getelementptr inbounds %struct.list_head, ptr %35, i32 0, i32 1
  %37 = load ptr, ptr %36, align 8
  store ptr %37, ptr %4, align 8
  br label %24, !llvm.loop !14

38:                                               ; preds = %24
  %39 = load ptr, ptr %2, align 8
  %40 = getelementptr inbounds %struct.JSWorkerMessagePipe, ptr %39, i32 0, i32 1
  %41 = call i32 @pthread_mutex_destroy(ptr noundef %40) #12
  %42 = load ptr, ptr %2, align 8
  %43 = getelementptr inbounds %struct.JSWorkerMessagePipe, ptr %42, i32 0, i32 3
  %44 = load i32, ptr %43, align 8
  %45 = call i32 @close(i32 noundef %44)
  %46 = load ptr, ptr %2, align 8
  %47 = getelementptr inbounds %struct.JSWorkerMessagePipe, ptr %46, i32 0, i32 4
  %48 = load i32, ptr %47, align 4
  %49 = call i32 @close(i32 noundef %48)
  %50 = load ptr, ptr %2, align 8
  call void @free(ptr noundef %50) #12
  br label %51

51:                                               ; preds = %38, %10, %9
  ret void
}