; Function Attrs: nounwind uwtable
define internal fastcc void @js_free_message_pipe(ptr noundef %0) unnamed_addr #0 {
  %.not = icmp eq ptr %0, null
  br i1 %.not, label %35, label %2

2:                                                ; preds = %1
  %3 = atomicrmw add ptr %0, i32 -1 seq_cst, align 4
  %4 = icmp eq i32 %3, 1
  br i1 %4, label %5, label %35

5:                                                ; preds = %2
  %6 = getelementptr inbounds i8, ptr %0, i64 48
  %7 = getelementptr inbounds i8, ptr %0, i64 56
  %8 = load ptr, ptr %7, align 8
  %.not1617 = icmp eq ptr %8, %6
  br i1 %.not1617, label %._crit_edge, label %.lr.ph

.lr.ph:                                           ; preds = %5, %js_free_message.exit
  %.018 = phi ptr [ %.014, %js_free_message.exit ], [ %8, %5 ]
  %.014.in = getelementptr inbounds i8, ptr %.018, i64 8
  %.014 = load ptr, ptr %.014.in, align 8
  %9 = getelementptr inbounds i8, ptr %.018, i64 40
  %10 = load i64, ptr %9, align 8
  %.not.i = icmp eq i64 %10, 0
  br i1 %.not.i, label %js_free_message.exit, label %.lr.ph.i

.lr.ph.i:                                         ; preds = %.lr.ph
  %11 = getelementptr inbounds i8, ptr %.018, i64 32
  br label %12

12:                                               ; preds = %js_sab_free.exit.i, %.lr.ph.i
  %.07.i = phi i64 [ 0, %.lr.ph.i ], [ %20, %js_sab_free.exit.i ]
  %13 = load ptr, ptr %11, align 8
  %14 = getelementptr ptr, ptr %13, i64 %.07.i
  %15 = load ptr, ptr %14, align 8
  %16 = getelementptr i8, ptr %15, i64 -8
  %17 = atomicrmw add ptr %16, i32 -1 seq_cst, align 4
  %18 = icmp eq i32 %17, 1
  br i1 %18, label %19, label %js_sab_free.exit.i

19:                                               ; preds = %12
  tail call void @free(ptr noundef %16) #29
  br label %js_sab_free.exit.i

js_sab_free.exit.i:                               ; preds = %19, %12
  %20 = add nuw i64 %.07.i, 1
  %21 = load i64, ptr %9, align 8
  %22 = icmp ult i64 %20, %21
  br i1 %22, label %12, label %js_free_message.exit, !llvm.loop !15

js_free_message.exit:                             ; preds = %js_sab_free.exit.i, %.lr.ph
  %23 = getelementptr inbounds i8, ptr %.018, i64 32
  %24 = load ptr, ptr %23, align 8
  tail call void @free(ptr noundef %24) #29
  %25 = getelementptr inbounds i8, ptr %.018, i64 16
  %26 = load ptr, ptr %25, align 8
  tail call void @free(ptr noundef %26) #29
  tail call void @free(ptr noundef nonnull %.018) #29
  %.not16 = icmp eq ptr %.014, %6
  br i1 %.not16, label %._crit_edge, label %.lr.ph, !llvm.loop !16

._crit_edge:                                      ; preds = %js_free_message.exit, %5
  %27 = getelementptr inbounds i8, ptr %0, i64 8
  %28 = tail call i32 @pthread_mutex_destroy(ptr noundef nonnull %27) #29
  %29 = getelementptr inbounds i8, ptr %0, i64 64
  %30 = load i32, ptr %29, align 8
  %31 = tail call i32 @close(i32 noundef %30) #29
  %32 = getelementptr inbounds i8, ptr %0, i64 68
  %33 = load i32, ptr %32, align 4
  %34 = tail call i32 @close(i32 noundef %33) #29
  tail call void @free(ptr noundef %0) #29
  br label %35

35:                                               ; preds = %1, %._crit_edge, %2
  ret void
}